target datalayout = "e-m:e-p270:32:32-p271:32:32-p272:64:64-i64:64-i128:128-f80:128-n8:16:32:64-S128"
target triple = "x86_64-unknown-linux-gnu"

%"class.smt::theory_array_full" = type { %"class.smt::theory_array.base", %class.ptr_vector.24, %class.ast2ast_trailmap, %class.ast2ast_trailmap.36, %class.obj_pair_map, %class.ptr_vector, %class.ptr_vector }
%"class.smt::theory_array.base" = type <{ %"class.smt::theory_array_base.base", [7 x i8], %class.ptr_vector.20, ptr, %"struct.smt::theory_array_stats", [4 x i8], %class.union_find, %class.trail_stack, i32 }>
%"class.smt::theory_array_base.base" = type <{ %"class.smt::theory.base", i8, [2 x i8], i32, [4 x i8], %class.svector.1, %class.ptr_vector, %class.svector.3, %class.svector.3, %class.svector.3, %class.scoped_ptr, %class.ptr_vector.5, %class.obj_map, %class.ptr_hashtable, %class.svector.9, ptr, %class.ptr_vector, %class.ptr_vector.11, %class.svector.1, %class.obj_map.13, %class.ptr_vector, %class.ptr_vector.18, i8 }>
%"class.smt::theory.base" = type <{ ptr, i32, [4 x i8], ptr, ptr, %class.ptr_vector, %class.svector, i32, i8 }>
%class.svector = type { %class.vector.0 }
%class.vector.0 = type { ptr }
%class.svector.3 = type { %class.vector.4 }
%class.vector.4 = type { ptr }
%class.scoped_ptr = type { ptr }
%class.ptr_vector.5 = type { %class.vector.6 }
%class.vector.6 = type { ptr }
%class.obj_map = type { %class.core_hashtable }
%class.core_hashtable = type <{ ptr, i32, i32, i32, [4 x i8] }>
%class.ptr_hashtable = type { %class.core_hashtable.base.8, [4 x i8] }
%class.core_hashtable.base.8 = type <{ ptr, i32, i32, i32 }>
%class.svector.9 = type { %class.vector.10 }
%class.vector.10 = type { ptr }
%class.ptr_vector.11 = type { %class.vector.12 }
%class.vector.12 = type { ptr }
%class.svector.1 = type { %class.vector.2 }
%class.vector.2 = type { ptr }
%class.obj_map.13 = type { %class.core_hashtable.14 }
%class.core_hashtable.14 = type <{ ptr, i32, i32, i32, [4 x i8] }>
%class.ptr_vector.18 = type { %class.vector.19 }
%class.vector.19 = type { ptr }
%class.ptr_vector.20 = type { %class.vector.21 }
%class.vector.21 = type { ptr }
%"struct.smt::theory_array_stats" = type { i32, i32, i32, i32, i32, i32, i32, i32, i32, i32, i32, i32, i32 }
%class.union_find = type { ptr, ptr, %class.svector, %class.svector, %class.svector, %"class.union_find<smt::theory_array>::mk_var_trail" }
%"class.union_find<smt::theory_array>::mk_var_trail" = type { %class.trail, ptr }
%class.trail = type { ptr }
%class.trail_stack = type { %class.ptr_vector.22, %class.svector, %class.region }
%class.ptr_vector.22 = type { %class.vector.23 }
%class.vector.23 = type { ptr }
%class.region = type { ptr, ptr, ptr, ptr, ptr }
%class.ptr_vector.24 = type { %class.vector.25 }
%class.vector.25 = type { ptr }
%class.ast2ast_trailmap = type { %class.ref_vector, %class.ref_vector.26, %class.obj_map.31 }
%class.ref_vector = type { %class.ref_vector_core }
%class.ref_vector_core = type { %class.ref_manager_wrapper, %class.ptr_vector.5 }
%class.ref_manager_wrapper = type { ptr }
%class.ref_vector.26 = type { %class.ref_vector_core.27 }
%class.ref_vector_core.27 = type { %class.ref_manager_wrapper.28, %class.ptr_vector.29 }
%class.ref_manager_wrapper.28 = type { ptr }
%class.ptr_vector.29 = type { %class.vector.30 }
%class.vector.30 = type { ptr }
%class.obj_map.31 = type { %class.core_hashtable.32 }
%class.core_hashtable.32 = type <{ ptr, i32, i32, i32, [4 x i8] }>
%class.ast2ast_trailmap.36 = type { %class.ref_vector, %class.ref_vector.37, %class.obj_map.42 }
%class.ref_vector.37 = type { %class.ref_vector_core.38 }
%class.ref_vector_core.38 = type { %class.ref_manager_wrapper.39, %class.ptr_vector.40 }
%class.ref_manager_wrapper.39 = type { ptr }
%class.ptr_vector.40 = type { %class.vector.41 }
%class.vector.41 = type { ptr }
%class.obj_map.42 = type { %class.core_hashtable.43 }
%class.core_hashtable.43 = type <{ ptr, i32, i32, i32, [4 x i8] }>
%class.obj_pair_map = type { %class.core_hashtable.47 }
%class.core_hashtable.47 = type <{ ptr, i32, i32, i32, [4 x i8] }>
%class.ptr_vector = type { %class.vector }
%class.vector = type { ptr }
%"class.smt::theory_array" = type <{ %"class.smt::theory_array_base.base", [7 x i8], %class.ptr_vector.20, ptr, %"struct.smt::theory_array_stats", [4 x i8], %class.union_find, %class.trail_stack, i32, [4 x i8] }>
%"struct.smt::theory_array_full::var_data_full" = type { %class.ptr_vector, %class.ptr_vector, %class.ptr_vector, %class.ptr_vector, %class.ptr_vector }
%"struct.smt::theory_array::var_data" = type <{ %class.ptr_vector, %class.ptr_vector, %class.ptr_vector, i8, i8, i8, [5 x i8] }>

; Function Attrs: mustprogress nounwind uwtable
define linkonce_odr hidden noundef nonnull align 8 dereferenceable(8) ptr @_ZN6vectorIPN3smt5enodeELb0EjEixEj(ptr noundef nonnull align 8 dereferenceable(8) %this, i32 noundef %idx) #4 comdat align 2 {
entry:
  %this.addr = alloca ptr, align 8
  %idx.addr = alloca i32, align 4
  store ptr %this, ptr %this.addr, align 8
  store i32 %idx, ptr %idx.addr, align 4
  %this1 = load ptr, ptr %this.addr, align 8
  %m_data = getelementptr inbounds %class.vector, ptr %this1, i32 0, i32 0
  %0 = load ptr, ptr %m_data, align 8
  %1 = load i32, ptr %idx.addr, align 4
  %idxprom = zext i32 %1 to i64
  %arrayidx = getelementptr inbounds ptr, ptr %0, i64 %idxprom
  ret ptr %arrayidx
}

; Function Attrs: mustprogress nounwind uwtable
define linkonce_odr hidden noundef i32 @_ZNK6vectorIPN3smt5enodeELb0EjE4sizeEv(ptr noundef nonnull align 8 dereferenceable(8) %this) #4 comdat align 2 {
entry:
  %retval = alloca i32, align 4
  %this.addr = alloca ptr, align 8
  store ptr %this, ptr %this.addr, align 8
  %this1 = load ptr, ptr %this.addr, align 8
  %m_data = getelementptr inbounds %class.vector, ptr %this1, i32 0, i32 0
  %0 = load ptr, ptr %m_data, align 8
  %cmp = icmp eq ptr %0, null
  br i1 %cmp, label %if.then, label %if.end

if.then:                                          ; preds = %entry
  store i32 0, ptr %retval, align 4
  br label %return

if.end:                                           ; preds = %entry
  %m_data2 = getelementptr inbounds %class.vector, ptr %this1, i32 0, i32 0
  %1 = load ptr, ptr %m_data2, align 8
  %arrayidx = getelementptr inbounds i32, ptr %1, i64 -1
  %2 = load i32, ptr %arrayidx, align 4
  store i32 %2, ptr %retval, align 4
  br label %return

return:                                           ; preds = %if.end, %if.then
  %3 = load i32, ptr %retval, align 4
  ret i32 %3
}

; Function Attrs: mustprogress nounwind uwtable
define linkonce_odr hidden noundef nonnull align 8 dereferenceable(8) ptr @_ZN6vectorIPN3smt17theory_array_full13var_data_fullELb0EjEixEj(ptr noundef nonnull align 8 dereferenceable(8) %this, i32 noundef %idx) #4 comdat align 2 {
entry:
  %this.addr = alloca ptr, align 8
  %idx.addr = alloca i32, align 4
  store ptr %this, ptr %this.addr, align 8
  store i32 %idx, ptr %idx.addr, align 4
  %this1 = load ptr, ptr %this.addr, align 8
  %m_data = getelementptr inbounds %class.vector.25, ptr %this1, i32 0, i32 0
  %0 = load ptr, ptr %m_data, align 8
  %1 = load i32, ptr %idx.addr, align 4
  %idxprom = zext i32 %1 to i64
  %arrayidx = getelementptr inbounds ptr, ptr %0, i64 %idxprom
  ret ptr %arrayidx
}

; Function Attrs: mustprogress nounwind uwtable
define linkonce_odr hidden noundef nonnull align 8 dereferenceable(8) ptr @_ZN6vectorIPN3smt12theory_array8var_dataELb0EjEixEj(ptr noundef nonnull align 8 dereferenceable(8) %this, i32 noundef %idx) #4 comdat align 2 {
entry:
  %this.addr = alloca ptr, align 8
  %idx.addr = alloca i32, align 4
  store ptr %this, ptr %this.addr, align 8
  store i32 %idx, ptr %idx.addr, align 4
  %this1 = load ptr, ptr %this.addr, align 8
  %m_data = getelementptr inbounds %class.vector.21, ptr %this1, i32 0, i32 0
  %0 = load ptr, ptr %m_data, align 8
  %1 = load i32, ptr %idx.addr, align 4
  %idxprom = zext i32 %1 to i64
  %arrayidx = getelementptr inbounds ptr, ptr %0, i64 %idxprom
  ret ptr %arrayidx
}

; Function Attrs: mustprogress uwtable
define hidden noundef zeroext i1 @_ZN3smt17theory_array_full25instantiate_axiom_map_forEi(ptr noundef nonnull align 8 dereferenceable(608) %this, i32 noundef %v) #5 align 2 {
entry:
  %this.addr = alloca ptr, align 8
  %v.addr = alloca i32, align 4
  %result = alloca i8, align 1
  %d = alloca ptr, align 8
  %d_full = alloca ptr, align 8
  %i = alloca i32, align 4
  %pm = alloca ptr, align 8
  %j = alloca i32, align 4
  %ps = alloca ptr, align 8
  store ptr %this, ptr %this.addr, align 8
  store i32 %v, ptr %v.addr, align 4
  %this1 = load ptr, ptr %this.addr, align 8
  store i8 0, ptr %result, align 1
  %m_var_data = getelementptr inbounds %"class.smt::theory_array", ptr %this1, i32 0, i32 2
  %0 = load i32, ptr %v.addr, align 4
  %call = call noundef nonnull align 8 dereferenceable(8) ptr @_ZN6vectorIPN3smt12theory_array8var_dataELb0EjEixEj(ptr noundef nonnull align 8 dereferenceable(8) %m_var_data, i32 noundef %0)
  %1 = load ptr, ptr %call, align 8
  store ptr %1, ptr %d, align 8
  %m_var_data_full = getelementptr inbounds %"class.smt::theory_array_full", ptr %this1, i32 0, i32 1
  %2 = load i32, ptr %v.addr, align 4
  %call2 = call noundef nonnull align 8 dereferenceable(8) ptr @_ZN6vectorIPN3smt17theory_array_full13var_data_fullELb0EjEixEj(ptr noundef nonnull align 8 dereferenceable(8) %m_var_data_full, i32 noundef %2)
  %3 = load ptr, ptr %call2, align 8
  store ptr %3, ptr %d_full, align 8
  store i32 0, ptr %i, align 4
  br label %for.cond

for.cond:                                         ; preds = %for.inc13, %entry
  %4 = load i32, ptr %i, align 4
  %5 = load ptr, ptr %d_full, align 8
  %m_parent_maps = getelementptr inbounds %"struct.smt::theory_array_full::var_data_full", ptr %5, i32 0, i32 4
  %call3 = call noundef i32 @_ZNK6vectorIPN3smt5enodeELb0EjE4sizeEv(ptr noundef nonnull align 8 dereferenceable(8) %m_parent_maps)
  %cmp = icmp ult i32 %4, %call3
  br i1 %cmp, label %for.body, label %for.end15

for.body:                                         ; preds = %for.cond
  %6 = load ptr, ptr %d_full, align 8
  %m_parent_maps4 = getelementptr inbounds %"struct.smt::theory_array_full::var_data_full", ptr %6, i32 0, i32 4
  %7 = load i32, ptr %i, align 4
  %call5 = call noundef nonnull align 8 dereferenceable(8) ptr @_ZN6vectorIPN3smt5enodeELb0EjEixEj(ptr noundef nonnull align 8 dereferenceable(8) %m_parent_maps4, i32 noundef %7)
  %8 = load ptr, ptr %call5, align 8
  store ptr %8, ptr %pm, align 8
  store i32 0, ptr %j, align 4
  br label %for.cond6

for.cond6:                                        ; preds = %for.inc, %for.body
  %9 = load i32, ptr %j, align 4
  %10 = load ptr, ptr %d, align 8
  %m_parent_selects = getelementptr inbounds %"struct.smt::theory_array::var_data", ptr %10, i32 0, i32 1
  %call7 = call noundef i32 @_ZNK6vectorIPN3smt5enodeELb0EjE4sizeEv(ptr noundef nonnull align 8 dereferenceable(8) %m_parent_selects)
  %cmp8 = icmp ult i32 %9, %call7
  br i1 %cmp8, label %for.body9, label %for.end

for.body9:                                        ; preds = %for.cond6
  %11 = load ptr, ptr %d, align 8
  %m_parent_selects10 = getelementptr inbounds %"struct.smt::theory_array::var_data", ptr %11, i32 0, i32 1
  %12 = load i32, ptr %j, align 4
  %call11 = call noundef nonnull align 8 dereferenceable(8) ptr @_ZN6vectorIPN3smt5enodeELb0EjEixEj(ptr noundef nonnull align 8 dereferenceable(8) %m_parent_selects10, i32 noundef %12)
  %13 = load ptr, ptr %call11, align 8
  store ptr %13, ptr %ps, align 8
  %14 = load ptr, ptr %ps, align 8
  %15 = load ptr, ptr %pm, align 8
  %call12 = call noundef zeroext i1 @_ZN3smt17theory_array_full28instantiate_select_map_axiomEPNS_5enodeES2_(ptr noundef nonnull align 8 dereferenceable(608) %this1, ptr noundef %14, ptr noundef %15)
  br i1 %call12, label %if.then, label %if.end

if.then:                                          ; preds = %for.body9
  store i8 1, ptr %result, align 1
  br label %if.end

if.end:                                           ; preds = %if.then, %for.body9
  br label %for.inc

for.inc:                                          ; preds = %if.end
  %16 = load i32, ptr %j, align 4
  %inc = add i32 %16, 1
  store i32 %inc, ptr %j, align 4
  br label %for.cond6, !llvm.loop !10

for.end:                                          ; preds = %for.cond6
  br label %for.inc13

for.inc13:                                        ; preds = %for.end
  %17 = load i32, ptr %i, align 4
  %inc14 = add i32 %17, 1
  store i32 %inc14, ptr %i, align 4
  br label %for.cond, !llvm.loop !11

for.end15:                                        ; preds = %for.cond
  %18 = load i8, ptr %result, align 1
  %tobool = trunc i8 %18 to i1
  ret i1 %tobool
}