; Function Attrs: mustprogress uwtable
define hidden noundef zeroext i1 @_ZN3smt17theory_array_full25instantiate_axiom_map_forEi(ptr noundef nonnull align 8 dereferenceable(608) %this, i32 noundef %v) local_unnamed_addr #3 align 2 {
entry:
  %m_var_data = getelementptr inbounds i8, ptr %this, i64 256
  %0 = load ptr, ptr %m_var_data, align 8
  %idxprom.i = zext i32 %v to i64
  %arrayidx.i = getelementptr inbounds ptr, ptr %0, i64 %idxprom.i
  %1 = load ptr, ptr %arrayidx.i, align 8
  %m_var_data_full = getelementptr inbounds i8, ptr %this, i64 448
  %2 = load ptr, ptr %m_var_data_full, align 8
  %arrayidx.i9 = getelementptr inbounds ptr, ptr %2, i64 %idxprom.i
  %3 = load ptr, ptr %arrayidx.i9, align 8
  %m_parent_maps = getelementptr inbounds i8, ptr %3, i64 32
  %m_parent_selects = getelementptr inbounds i8, ptr %1, i64 8
  br label %for.cond

for.cond:                                         ; preds = %for.inc13, %entry
  %indvars.iv20 = phi i64 [ %indvars.iv.next21, %for.inc13 ], [ 0, %entry ]
  %result.0 = phi i8 [ %result.1, %for.inc13 ], [ 0, %entry ]
  %4 = load ptr, ptr %m_parent_maps, align 8
  %cmp.i = icmp eq ptr %4, null
  br i1 %cmp.i, label %_ZNK6vectorIPN3smt5enodeELb0EjE4sizeEv.exit, label %if.end.i

if.end.i:                                         ; preds = %for.cond
  %arrayidx.i10 = getelementptr inbounds i8, ptr %4, i64 -4
  %5 = load i32, ptr %arrayidx.i10, align 4
  br label %_ZNK6vectorIPN3smt5enodeELb0EjE4sizeEv.exit

_ZNK6vectorIPN3smt5enodeELb0EjE4sizeEv.exit:      ; preds = %for.cond, %if.end.i
  %retval.0.i = phi i32 [ %5, %if.end.i ], [ 0, %for.cond ]
  %6 = zext i32 %retval.0.i to i64
  %cmp = icmp ult i64 %indvars.iv20, %6
  br i1 %cmp, label %for.body, label %for.end15

for.body:                                         ; preds = %_ZNK6vectorIPN3smt5enodeELb0EjE4sizeEv.exit
  %arrayidx.i12 = getelementptr inbounds ptr, ptr %4, i64 %indvars.iv20
  %7 = load ptr, ptr %arrayidx.i12, align 8
  br label %for.cond6

for.cond6:                                        ; preds = %for.body9, %for.body
  %indvars.iv = phi i64 [ %indvars.iv.next, %for.body9 ], [ 0, %for.body ]
  %result.1 = phi i8 [ %spec.select, %for.body9 ], [ %result.0, %for.body ]
  %8 = load ptr, ptr %m_parent_selects, align 8
  %cmp.i13 = icmp eq ptr %8, null
  br i1 %cmp.i13, label %_ZNK6vectorIPN3smt5enodeELb0EjE4sizeEv.exit17, label %if.end.i14

if.end.i14:                                       ; preds = %for.cond6
  %arrayidx.i15 = getelementptr inbounds i8, ptr %8, i64 -4
  %9 = load i32, ptr %arrayidx.i15, align 4
  br label %_ZNK6vectorIPN3smt5enodeELb0EjE4sizeEv.exit17

_ZNK6vectorIPN3smt5enodeELb0EjE4sizeEv.exit17:    ; preds = %for.cond6, %if.end.i14
  %retval.0.i16 = phi i32 [ %9, %if.end.i14 ], [ 0, %for.cond6 ]
  %10 = zext i32 %retval.0.i16 to i64
  %cmp8 = icmp ult i64 %indvars.iv, %10
  br i1 %cmp8, label %for.body9, label %for.inc13

for.body9:                                        ; preds = %_ZNK6vectorIPN3smt5enodeELb0EjE4sizeEv.exit17
  %arrayidx.i19 = getelementptr inbounds ptr, ptr %8, i64 %indvars.iv
  %11 = load ptr, ptr %arrayidx.i19, align 8
  %call12 = tail call noundef zeroext i1 @_ZN3smt17theory_array_full28instantiate_select_map_axiomEPNS_5enodeES2_(ptr noundef nonnull align 8 dereferenceable(608) %this, ptr noundef %11, ptr noundef %7)
  %spec.select = select i1 %call12, i8 1, i8 %result.1
  %indvars.iv.next = add nuw nsw i64 %indvars.iv, 1
  br label %for.cond6, !llvm.loop !16

for.inc13:                                        ; preds = %_ZNK6vectorIPN3smt5enodeELb0EjE4sizeEv.exit17
  %indvars.iv.next21 = add nuw nsw i64 %indvars.iv20, 1
  br label %for.cond, !llvm.loop !17

for.end15:                                        ; preds = %_ZNK6vectorIPN3smt5enodeELb0EjE4sizeEv.exit
  %12 = and i8 %result.0, 1
  %tobool = icmp ne i8 %12, 0
  ret i1 %tobool
}